; Function Attrs: mustprogress nounwind uwtable
define internal fastcc void @_ZN12_GLOBAL__N_119InstructionVerifier16reportInvalidUseERKN4llvm5ValueERKNS1_11InstructionE(ptr nocapture noundef nonnull writeonly align 1 dereferenceable(1) %0, ptr noundef nonnull align 8 dereferenceable(24) %1, ptr noundef nonnull align 8 dereferenceable(72) %2) unnamed_addr #0 align 2 {
  %4 = tail call noundef nonnull align 8 dereferenceable(96) ptr @_ZN4llvm4errsEv() #19
  %5 = getelementptr inbounds nuw i8, ptr %4, i64 24
  %6 = load ptr, ptr %5, align 8
  %7 = getelementptr inbounds nuw i8, ptr %4, i64 32
  %8 = load ptr, ptr %7, align 8
  %9 = ptrtoint ptr %6 to i64
  %10 = ptrtoint ptr %8 to i64
  %11 = sub i64 %9, %10
  %12 = icmp ult i64 %11, 40
  br i1 %12, label %13, label %15

13:                                               ; preds = %3
  %14 = tail call noundef nonnull align 8 dereferenceable(48) ptr @_ZN4llvm11raw_ostream5writeEPKcm(ptr noundef nonnull align 8 dereferenceable(48) %4, ptr noundef nonnull @.str.7, i64 noundef 40) #19
  br label %_ZN4llvm11raw_ostreamlsEPKc.exit

15:                                               ; preds = %3
  tail call void @llvm.memcpy.p0.p0.i64(ptr noundef nonnull align 1 dereferenceable(40) %8, ptr noundef nonnull align 1 dereferenceable(40) @.str.7, i64 40, i1 false)
  %16 = load ptr, ptr %7, align 8
  %17 = getelementptr inbounds i8, ptr %16, i64 40
  store ptr %17, ptr %7, align 8
  br label %_ZN4llvm11raw_ostreamlsEPKc.exit

_ZN4llvm11raw_ostreamlsEPKc.exit:                 ; preds = %13, %15
  %18 = tail call noundef nonnull align 8 dereferenceable(96) ptr @_ZN4llvm4errsEv() #19
  %19 = getelementptr inbounds nuw i8, ptr %18, i64 24
  %20 = load ptr, ptr %19, align 8
  %21 = getelementptr inbounds nuw i8, ptr %18, i64 32
  %22 = load ptr, ptr %21, align 8
  %23 = ptrtoint ptr %20 to i64
  %24 = ptrtoint ptr %22 to i64
  %25 = sub i64 %23, %24
  %26 = icmp ult i64 %25, 5
  br i1 %26, label %27, label %29

27:                                               ; preds = %_ZN4llvm11raw_ostreamlsEPKc.exit
  %28 = tail call noundef nonnull align 8 dereferenceable(48) ptr @_ZN4llvm11raw_ostream5writeEPKcm(ptr noundef nonnull align 8 dereferenceable(48) %18, ptr noundef nonnull @.str.8, i64 noundef 5) #19
  br label %_ZN4llvm11raw_ostreamlsEPKc.exit5

29:                                               ; preds = %_ZN4llvm11raw_ostreamlsEPKc.exit
  tail call void @llvm.memcpy.p0.p0.i64(ptr noundef nonnull align 1 dereferenceable(5) %22, ptr noundef nonnull align 1 dereferenceable(5) @.str.8, i64 5, i1 false)
  %30 = load ptr, ptr %21, align 8
  %31 = getelementptr inbounds i8, ptr %30, i64 5
  store ptr %31, ptr %21, align 8
  br label %_ZN4llvm11raw_ostreamlsEPKc.exit5

_ZN4llvm11raw_ostreamlsEPKc.exit5:                ; preds = %27, %29
  %.0.i.i4 = phi ptr [ %28, %27 ], [ %18, %29 ]
  tail call void @_ZNK4llvm5Value5printERNS_11raw_ostreamEb(ptr noundef nonnull align 8 dereferenceable(24) %1, ptr noundef nonnull align 8 dereferenceable(48) %.0.i.i4, i1 noundef zeroext false) #19
  %32 = getelementptr inbounds nuw i8, ptr %.0.i.i4, i64 24
  %33 = load ptr, ptr %32, align 8
  %34 = getelementptr inbounds nuw i8, ptr %.0.i.i4, i64 32
  %35 = load ptr, ptr %34, align 8
  %36 = icmp eq ptr %33, %35
  br i1 %36, label %37, label %39

37:                                               ; preds = %_ZN4llvm11raw_ostreamlsEPKc.exit5
  %38 = tail call noundef nonnull align 8 dereferenceable(48) ptr @_ZN4llvm11raw_ostream5writeEPKcm(ptr noundef nonnull align 8 dereferenceable(48) %.0.i.i4, ptr noundef nonnull @.str.5, i64 noundef 1) #19
  br label %_ZN4llvm11raw_ostreamlsEPKc.exit8

39:                                               ; preds = %_ZN4llvm11raw_ostreamlsEPKc.exit5
  store i8 10, ptr %35, align 1
  %40 = load ptr, ptr %34, align 8
  %41 = getelementptr inbounds i8, ptr %40, i64 1
  store ptr %41, ptr %34, align 8
  br label %_ZN4llvm11raw_ostreamlsEPKc.exit8

_ZN4llvm11raw_ostreamlsEPKc.exit8:                ; preds = %37, %39
  %42 = tail call noundef nonnull align 8 dereferenceable(96) ptr @_ZN4llvm4errsEv() #19
  %43 = getelementptr inbounds nuw i8, ptr %42, i64 24
  %44 = load ptr, ptr %43, align 8
  %45 = getelementptr inbounds nuw i8, ptr %42, i64 32
  %46 = load ptr, ptr %45, align 8
  %47 = ptrtoint ptr %44 to i64
  %48 = ptrtoint ptr %46 to i64
  %49 = sub i64 %47, %48
  %50 = icmp ult i64 %49, 5
  br i1 %50, label %51, label %53

51:                                               ; preds = %_ZN4llvm11raw_ostreamlsEPKc.exit8
  %52 = tail call noundef nonnull align 8 dereferenceable(48) ptr @_ZN4llvm11raw_ostream5writeEPKcm(ptr noundef nonnull align 8 dereferenceable(48) %42, ptr noundef nonnull @.str.9, i64 noundef 5) #19
  br label %_ZN4llvm11raw_ostreamlsEPKc.exit11

53:                                               ; preds = %_ZN4llvm11raw_ostreamlsEPKc.exit8
  tail call void @llvm.memcpy.p0.p0.i64(ptr noundef nonnull align 1 dereferenceable(5) %46, ptr noundef nonnull align 1 dereferenceable(5) @.str.9, i64 5, i1 false)
  %54 = load ptr, ptr %45, align 8
  %55 = getelementptr inbounds i8, ptr %54, i64 5
  store ptr %55, ptr %45, align 8
  br label %_ZN4llvm11raw_ostreamlsEPKc.exit11

_ZN4llvm11raw_ostreamlsEPKc.exit11:               ; preds = %51, %53
  %.0.i.i10 = phi ptr [ %52, %51 ], [ %42, %53 ]
  tail call void @_ZNK4llvm5Value5printERNS_11raw_ostreamEb(ptr noundef nonnull align 8 dereferenceable(24) %2, ptr noundef nonnull align 8 dereferenceable(48) %.0.i.i10, i1 noundef zeroext false) #19
  %56 = getelementptr inbounds nuw i8, ptr %.0.i.i10, i64 24
  %57 = load ptr, ptr %56, align 8
  %58 = getelementptr inbounds nuw i8, ptr %.0.i.i10, i64 32
  %59 = load ptr, ptr %58, align 8
  %60 = icmp eq ptr %57, %59
  br i1 %60, label %61, label %63

61:                                               ; preds = %_ZN4llvm11raw_ostreamlsEPKc.exit11
  %62 = tail call noundef nonnull align 8 dereferenceable(48) ptr @_ZN4llvm11raw_ostream5writeEPKcm(ptr noundef nonnull align 8 dereferenceable(48) %.0.i.i10, ptr noundef nonnull @.str.5, i64 noundef 1) #19
  br label %_ZN4llvm11raw_ostreamlsEPKc.exit14

63:                                               ; preds = %_ZN4llvm11raw_ostreamlsEPKc.exit11
  store i8 10, ptr %59, align 1
  %64 = load ptr, ptr %58, align 8
  %65 = getelementptr inbounds i8, ptr %64, i64 1
  store ptr %65, ptr %58, align 8
  br label %_ZN4llvm11raw_ostreamlsEPKc.exit14

_ZN4llvm11raw_ostreamlsEPKc.exit14:               ; preds = %61, %63
  %66 = load i8, ptr getelementptr inbounds (i8, ptr @_ZL9PrintOnly, i64 128), align 8
  %67 = trunc i8 %66 to i1
  br i1 %67, label %69, label %68

68:                                               ; preds = %_ZN4llvm11raw_ostreamlsEPKc.exit14
  tail call void @abort() #21
  unreachable

69:                                               ; preds = %_ZN4llvm11raw_ostreamlsEPKc.exit14
  store i8 1, ptr %0, align 1
  ret void
}